target datalayout = "e-m:e-p270:32:32-p271:32:32-p272:64:64-i64:64-i128:128-f80:128-n8:16:32:64-S128"
target triple = "x86_64-pc-linux-gnu"

%struct.H5P_libclass_t = type { ptr, i32, ptr, ptr, ptr, ptr, ptr, ptr, ptr, ptr, ptr, ptr, ptr }
%struct.H5VL_loc_params_t = type { i32, i32, %union.anon }
%union.anon = type { %struct.H5VL_loc_by_idx }
%struct.H5VL_loc_by_idx = type { ptr, i32, i32, i64, i64 }
%struct.H5VL_loc_by_name = type { ptr, i64 }
%struct.H5VL_optional_args_t = type { i32, ptr }
%union.H5VL_native_object_optional_args_t = type { %struct.H5VL_native_object_get_comment_t }
%struct.H5VL_native_object_get_comment_t = type { i64, ptr, ptr }
%struct.H5VL_native_object_get_native_info_t = type { i32, ptr }

@H5_libinit_g = external global i8, align 1
@H5_libterm_g = external global i8, align 1
@.str = private unnamed_addr constant [97 x i8] c"generated/home/dtcxzyw/WorkSpace/Projects/compilers/llvm-opt-benchmark/bench/hdf5/hdf5/src/H5O.c\00", align 1
@H5E_FUNC_g = external global i64, align 8
@H5E_CANTINIT_g = external global i64, align 8
@.str.1 = private unnamed_addr constant [30 x i8] c"library initialization failed\00", align 1
@H5E_CANTSET_g = external global i64, align 8
@.str.2 = private unnamed_addr constant [22 x i8] c"can't set API context\00", align 1
@H5E_OHDR_g = external global i64, align 8
@H5E_ARGS_g = external global i64, align 8
@H5E_BADVALUE_g = external global i64, align 8
@H5E_BADTYPE_g = external global i64, align 8
@.str.21 = private unnamed_addr constant [28 x i8] c"invalid location identifier\00", align 1
@H5P_LST_DATASET_XFER_ID_g = external global i64, align 8
@H5P_CLS_LACC = external constant [1 x %struct.H5P_libclass_t], align 16
@.str.44 = private unnamed_addr constant [36 x i8] c"can't set access property list info\00", align 1
@.str.49 = private unnamed_addr constant [30 x i8] c"name parameter cannot be NULL\00", align 1
@.str.50 = private unnamed_addr constant [41 x i8] c"name parameter cannot be an empty string\00", align 1
@H5E_CANTGET_g = external global i64, align 8
@.str.52 = private unnamed_addr constant [31 x i8] c"oinfo parameter cannot be NULL\00", align 1
@.str.53 = private unnamed_addr constant [15 x i8] c"invalid fields\00", align 1
@__func__.H5Oget_native_info_by_name = private unnamed_addr constant [27 x i8] c"H5Oget_native_info_by_name\00", align 1
@.str.64 = private unnamed_addr constant [51 x i8] c"can't get native file format info for object: '%s'\00", align 1

; Function Attrs: nounwind uwtable
define i32 @H5Oget_native_info_by_name(i64 noundef %0, ptr noundef %1, ptr noundef %2, i32 noundef %3, i64 noundef %4) #0 {
  %6 = alloca i64, align 8
  %7 = alloca ptr, align 8
  %8 = alloca ptr, align 8
  %9 = alloca i32, align 4
  %10 = alloca i64, align 8
  %11 = alloca ptr, align 8
  %12 = alloca %struct.H5VL_optional_args_t, align 8
  %13 = alloca %union.H5VL_native_object_optional_args_t, align 8
  %14 = alloca %struct.H5VL_loc_params_t, align 8
  %15 = alloca i32, align 4
  %16 = alloca i8, align 1
  %17 = alloca i8, align 1
  store i64 %0, ptr %6, align 8
  store ptr %1, ptr %7, align 8
  store ptr %2, ptr %8, align 8
  store i32 %3, ptr %9, align 4
  store i64 %4, ptr %10, align 8
  store i32 0, ptr %15, align 4
  store i8 0, ptr %16, align 1
  store i8 0, ptr %17, align 1
  %18 = load i8, ptr @H5_libinit_g, align 1
  %19 = trunc i8 %18 to i1
  br i1 %19, label %24, label %20

20:                                               ; preds = %5
  %21 = load i8, ptr @H5_libterm_g, align 1
  %22 = trunc i8 %21 to i1
  %23 = xor i1 %22, true
  br label %24

24:                                               ; preds = %20, %5
  %25 = phi i1 [ false, %5 ], [ %23, %20 ]
  %26 = xor i1 %25, true
  %27 = xor i1 %26, true
  %28 = zext i1 %27 to i32
  %29 = sext i32 %28 to i64
  %30 = icmp ne i64 %29, 0
  br i1 %30, label %31, label %55

31:                                               ; preds = %24
  %32 = call i32 @H5_init_library()
  %33 = icmp slt i32 %32, 0
  %34 = xor i1 %33, true
  %35 = xor i1 %34, true
  %36 = zext i1 %35 to i32
  %37 = sext i32 %36 to i64
  %38 = icmp ne i64 %37, 0
  br i1 %38, label %39, label %54

39:                                               ; preds = %31
  br label %40

40:                                               ; preds = %39
  br label %41

41:                                               ; preds = %40
  br label %42

42:                                               ; preds = %41
  %43 = load i64, ptr @H5E_FUNC_g, align 8
  %44 = load i64, ptr @H5E_CANTINIT_g, align 8
  %45 = call i32 (ptr, ptr, i32, i64, i64, ptr, ...) @H5E_printf_stack(ptr noundef @.str, ptr noundef @__func__.H5Oget_native_info_by_name, i32 noundef 1337, i64 noundef %43, i64 noundef %44, ptr noundef @.str.1)
  br label %46

46:                                               ; preds = %42
  store i8 1, ptr %17, align 1
  %47 = load i8, ptr %17, align 1
  %48 = trunc i8 %47 to i1
  %49 = zext i1 %48 to i8
  store i8 %49, ptr %17, align 1
  br label %50

50:                                               ; preds = %46
  br label %51

51:                                               ; preds = %50
  store i32 -1, ptr %15, align 4
  br label %230

52:                                               ; No predecessors!
  br label %53

53:                                               ; preds = %52
  br label %54

54:                                               ; preds = %53, %31
  br label %55

55:                                               ; preds = %54, %24
  %56 = call i32 @H5CX_push()
  %57 = icmp slt i32 %56, 0
  %58 = xor i1 %57, true
  %59 = xor i1 %58, true
  %60 = zext i1 %59 to i32
  %61 = sext i32 %60 to i64
  %62 = icmp ne i64 %61, 0
  br i1 %62, label %63, label %78

63:                                               ; preds = %55
  br label %64

64:                                               ; preds = %63
  br label %65

65:                                               ; preds = %64
  br label %66

66:                                               ; preds = %65
  %67 = load i64, ptr @H5E_FUNC_g, align 8
  %68 = load i64, ptr @H5E_CANTSET_g, align 8
  %69 = call i32 (ptr, ptr, i32, i64, i64, ptr, ...) @H5E_printf_stack(ptr noundef @.str, ptr noundef @__func__.H5Oget_native_info_by_name, i32 noundef 1337, i64 noundef %67, i64 noundef %68, ptr noundef @.str.2)
  br label %70

70:                                               ; preds = %66
  store i8 1, ptr %17, align 1
  %71 = load i8, ptr %17, align 1
  %72 = trunc i8 %71 to i1
  %73 = zext i1 %72 to i8
  store i8 %73, ptr %17, align 1
  br label %74

74:                                               ; preds = %70
  br label %75

75:                                               ; preds = %74
  store i32 -1, ptr %15, align 4
  br label %230

76:                                               ; No predecessors!
  br label %77

77:                                               ; preds = %76
  br label %79

78:                                               ; preds = %55
  store i8 1, ptr %16, align 1
  br label %79

79:                                               ; preds = %78, %77
  %80 = call i32 @H5E_clear_stack()
  %81 = load ptr, ptr %7, align 8
  %82 = icmp ne ptr %81, null
  br i1 %82, label %98, label %83

83:                                               ; preds = %79
  br label %84

84:                                               ; preds = %83
  br label %85

85:                                               ; preds = %84
  br label %86

86:                                               ; preds = %85
  %87 = load i64, ptr @H5E_ARGS_g, align 8
  %88 = load i64, ptr @H5E_BADVALUE_g, align 8
  %89 = call i32 (ptr, ptr, i32, i64, i64, ptr, ...) @H5E_printf_stack(ptr noundef @.str, ptr noundef @__func__.H5Oget_native_info_by_name, i32 noundef 1341, i64 noundef %87, i64 noundef %88, ptr noundef @.str.49)
  br label %90

90:                                               ; preds = %86
  store i8 1, ptr %17, align 1
  %91 = load i8, ptr %17, align 1
  %92 = trunc i8 %91 to i1
  %93 = zext i1 %92 to i8
  store i8 %93, ptr %17, align 1
  br label %94

94:                                               ; preds = %90
  br label %95

95:                                               ; preds = %94
  store i32 -1, ptr %15, align 4
  br label %230

96:                                               ; No predecessors!
  br label %97

97:                                               ; preds = %96
  br label %98

98:                                               ; preds = %97, %79
  %99 = load ptr, ptr %7, align 8
  %100 = load i8, ptr %99, align 1
  %101 = icmp ne i8 %100, 0
  br i1 %101, label %117, label %102

102:                                              ; preds = %98
  br label %103

103:                                              ; preds = %102
  br label %104

104:                                              ; preds = %103
  br label %105

105:                                              ; preds = %104
  %106 = load i64, ptr @H5E_ARGS_g, align 8
  %107 = load i64, ptr @H5E_BADVALUE_g, align 8
  %108 = call i32 (ptr, ptr, i32, i64, i64, ptr, ...) @H5E_printf_stack(ptr noundef @.str, ptr noundef @__func__.H5Oget_native_info_by_name, i32 noundef 1343, i64 noundef %106, i64 noundef %107, ptr noundef @.str.50)
  br label %109

109:                                              ; preds = %105
  store i8 1, ptr %17, align 1
  %110 = load i8, ptr %17, align 1
  %111 = trunc i8 %110 to i1
  %112 = zext i1 %111 to i8
  store i8 %112, ptr %17, align 1
  br label %113

113:                                              ; preds = %109
  br label %114

114:                                              ; preds = %113
  store i32 -1, ptr %15, align 4
  br label %230

115:                                              ; No predecessors!
  br label %116

116:                                              ; preds = %115
  br label %117

117:                                              ; preds = %116, %98
  %118 = load ptr, ptr %8, align 8
  %119 = icmp ne ptr %118, null
  br i1 %119, label %135, label %120

120:                                              ; preds = %117
  br label %121

121:                                              ; preds = %120
  br label %122

122:                                              ; preds = %121
  br label %123

123:                                              ; preds = %122
  %124 = load i64, ptr @H5E_ARGS_g, align 8
  %125 = load i64, ptr @H5E_BADVALUE_g, align 8
  %126 = call i32 (ptr, ptr, i32, i64, i64, ptr, ...) @H5E_printf_stack(ptr noundef @.str, ptr noundef @__func__.H5Oget_native_info_by_name, i32 noundef 1345, i64 noundef %124, i64 noundef %125, ptr noundef @.str.52)
  br label %127

127:                                              ; preds = %123
  store i8 1, ptr %17, align 1
  %128 = load i8, ptr %17, align 1
  %129 = trunc i8 %128 to i1
  %130 = zext i1 %129 to i8
  store i8 %130, ptr %17, align 1
  br label %131

131:                                              ; preds = %127
  br label %132

132:                                              ; preds = %131
  store i32 -1, ptr %15, align 4
  br label %230

133:                                              ; No predecessors!
  br label %134

134:                                              ; preds = %133
  br label %135

135:                                              ; preds = %134, %117
  %136 = load i32, ptr %9, align 4
  %137 = and i32 %136, -25
  %138 = icmp ne i32 %137, 0
  br i1 %138, label %139, label %154

139:                                              ; preds = %135
  br label %140

140:                                              ; preds = %139
  br label %141

141:                                              ; preds = %140
  br label %142

142:                                              ; preds = %141
  %143 = load i64, ptr @H5E_ARGS_g, align 8
  %144 = load i64, ptr @H5E_BADVALUE_g, align 8
  %145 = call i32 (ptr, ptr, i32, i64, i64, ptr, ...) @H5E_printf_stack(ptr noundef @.str, ptr noundef @__func__.H5Oget_native_info_by_name, i32 noundef 1347, i64 noundef %143, i64 noundef %144, ptr noundef @.str.53)
  br label %146

146:                                              ; preds = %142
  store i8 1, ptr %17, align 1
  %147 = load i8, ptr %17, align 1
  %148 = trunc i8 %147 to i1
  %149 = zext i1 %148 to i8
  store i8 %149, ptr %17, align 1
  br label %150

150:                                              ; preds = %146
  br label %151

151:                                              ; preds = %150
  store i32 -1, ptr %15, align 4
  br label %230

152:                                              ; No predecessors!
  br label %153

153:                                              ; preds = %152
  br label %154

154:                                              ; preds = %153, %135
  %155 = load i64, ptr %6, align 8
  %156 = call i32 @H5CX_set_apl(ptr noundef %10, ptr noundef @H5P_CLS_LACC, i64 noundef %155, i1 noundef zeroext false)
  %157 = icmp slt i32 %156, 0
  br i1 %157, label %158, label %173

158:                                              ; preds = %154
  br label %159

159:                                              ; preds = %158
  br label %160

160:                                              ; preds = %159
  br label %161

161:                                              ; preds = %160
  %162 = load i64, ptr @H5E_OHDR_g, align 8
  %163 = load i64, ptr @H5E_CANTSET_g, align 8
  %164 = call i32 (ptr, ptr, i32, i64, i64, ptr, ...) @H5E_printf_stack(ptr noundef @.str, ptr noundef @__func__.H5Oget_native_info_by_name, i32 noundef 1351, i64 noundef %162, i64 noundef %163, ptr noundef @.str.44)
  br label %165

165:                                              ; preds = %161
  store i8 1, ptr %17, align 1
  %166 = load i8, ptr %17, align 1
  %167 = trunc i8 %166 to i1
  %168 = zext i1 %167 to i8
  store i8 %168, ptr %17, align 1
  br label %169

169:                                              ; preds = %165
  br label %170

170:                                              ; preds = %169
  store i32 -1, ptr %15, align 4
  br label %230

171:                                              ; No predecessors!
  br label %172

172:                                              ; preds = %171
  br label %173

173:                                              ; preds = %172, %154
  %174 = getelementptr inbounds %struct.H5VL_loc_params_t, ptr %14, i32 0, i32 1
  store i32 1, ptr %174, align 4
  %175 = load ptr, ptr %7, align 8
  %176 = getelementptr inbounds %struct.H5VL_loc_params_t, ptr %14, i32 0, i32 2
  %177 = getelementptr inbounds %struct.H5VL_loc_by_name, ptr %176, i32 0, i32 0
  store ptr %175, ptr %177, align 8
  %178 = load i64, ptr %10, align 8
  %179 = getelementptr inbounds %struct.H5VL_loc_params_t, ptr %14, i32 0, i32 2
  %180 = getelementptr inbounds %struct.H5VL_loc_by_name, ptr %179, i32 0, i32 1
  store i64 %178, ptr %180, align 8
  %181 = load i64, ptr %6, align 8
  %182 = call i32 @H5I_get_type(i64 noundef %181)
  %183 = getelementptr inbounds %struct.H5VL_loc_params_t, ptr %14, i32 0, i32 0
  store i32 %182, ptr %183, align 8
  %184 = load i64, ptr %6, align 8
  %185 = call ptr @H5VL_vol_object(i64 noundef %184)
  store ptr %185, ptr %11, align 8
  %186 = icmp eq ptr null, %185
  br i1 %186, label %187, label %202

187:                                              ; preds = %173
  br label %188

188:                                              ; preds = %187
  br label %189

189:                                              ; preds = %188
  br label %190

190:                                              ; preds = %189
  %191 = load i64, ptr @H5E_ARGS_g, align 8
  %192 = load i64, ptr @H5E_BADTYPE_g, align 8
  %193 = call i32 (ptr, ptr, i32, i64, i64, ptr, ...) @H5E_printf_stack(ptr noundef @.str, ptr noundef @__func__.H5Oget_native_info_by_name, i32 noundef 1361, i64 noundef %191, i64 noundef %192, ptr noundef @.str.21)
  br label %194

194:                                              ; preds = %190
  store i8 1, ptr %17, align 1
  %195 = load i8, ptr %17, align 1
  %196 = trunc i8 %195 to i1
  %197 = zext i1 %196 to i8
  store i8 %197, ptr %17, align 1
  br label %198

198:                                              ; preds = %194
  br label %199

199:                                              ; preds = %198
  store i32 -1, ptr %15, align 4
  br label %230

200:                                              ; No predecessors!
  br label %201

201:                                              ; preds = %200
  br label %202

202:                                              ; preds = %201, %173
  %203 = load i32, ptr %9, align 4
  %204 = getelementptr inbounds %struct.H5VL_native_object_get_native_info_t, ptr %13, i32 0, i32 0
  store i32 %203, ptr %204, align 8
  %205 = load ptr, ptr %8, align 8
  %206 = getelementptr inbounds %struct.H5VL_native_object_get_native_info_t, ptr %13, i32 0, i32 1
  store ptr %205, ptr %206, align 8
  %207 = getelementptr inbounds %struct.H5VL_optional_args_t, ptr %12, i32 0, i32 0
  store i32 5, ptr %207, align 8
  %208 = getelementptr inbounds %struct.H5VL_optional_args_t, ptr %12, i32 0, i32 1
  store ptr %13, ptr %208, align 8
  %209 = load ptr, ptr %11, align 8
  %210 = load i64, ptr @H5P_LST_DATASET_XFER_ID_g, align 8
  %211 = call i32 @H5VL_object_optional(ptr noundef %209, ptr noundef %14, ptr noundef %12, i64 noundef %210, ptr noundef null)
  %212 = icmp slt i32 %211, 0
  br i1 %212, label %213, label %229

213:                                              ; preds = %202
  br label %214

214:                                              ; preds = %213
  br label %215

215:                                              ; preds = %214
  br label %216

216:                                              ; preds = %215
  %217 = load i64, ptr @H5E_OHDR_g, align 8
  %218 = load i64, ptr @H5E_CANTGET_g, align 8
  %219 = load ptr, ptr %7, align 8
  %220 = call i32 (ptr, ptr, i32, i64, i64, ptr, ...) @H5E_printf_stack(ptr noundef @.str, ptr noundef @__func__.H5Oget_native_info_by_name, i32 noundef 1372, i64 noundef %217, i64 noundef %218, ptr noundef @.str.64, ptr noundef %219)
  br label %221

221:                                              ; preds = %216
  store i8 1, ptr %17, align 1
  %222 = load i8, ptr %17, align 1
  %223 = trunc i8 %222 to i1
  %224 = zext i1 %223 to i8
  store i8 %224, ptr %17, align 1
  br label %225

225:                                              ; preds = %221
  br label %226

226:                                              ; preds = %225
  store i32 -1, ptr %15, align 4
  br label %230

227:                                              ; No predecessors!
  br label %228

228:                                              ; preds = %227
  br label %229

229:                                              ; preds = %228, %202
  br label %230

230:                                              ; preds = %229, %226, %199, %170, %151, %132, %114, %95, %75, %51
  %231 = load i8, ptr %16, align 1
  %232 = trunc i8 %231 to i1
  %233 = xor i1 %232, true
  %234 = xor i1 %233, true
  %235 = zext i1 %234 to i32
  %236 = sext i32 %235 to i64
  %237 = icmp ne i64 %236, 0
  br i1 %237, label %238, label %240

238:                                              ; preds = %230
  %239 = call i32 @H5CX_pop(i1 noundef zeroext true)
  store i8 0, ptr %16, align 1
  br label %240

240:                                              ; preds = %238, %230
  %241 = load i8, ptr %17, align 1
  %242 = trunc i8 %241 to i1
  %243 = xor i1 %242, true
  %244 = xor i1 %243, true
  %245 = zext i1 %244 to i32
  %246 = sext i32 %245 to i64
  %247 = icmp ne i64 %246, 0
  br i1 %247, label %248, label %250

248:                                              ; preds = %240
  %249 = call i32 @H5E_dump_api_stack()
  br label %250

250:                                              ; preds = %248, %240
  %251 = load i32, ptr %15, align 4
  ret i32 %251
}