; Function Attrs: nounwind uwtable
define range(i32 -1, 1) i32 @H5Oget_native_info_by_name(i64 noundef %0, ptr noundef %1, ptr noundef %2, i32 noundef %3, i64 noundef %4) local_unnamed_addr #0 {
  %6 = alloca i64, align 8
  %7 = alloca %struct.H5VL_optional_args_t, align 8
  %8 = alloca %union.H5VL_native_object_optional_args_t, align 8
  %9 = alloca %struct.H5VL_loc_params_t, align 8
  store i64 %4, ptr %6, align 8
  %10 = load i8, ptr @H5_libinit_g, align 1
  %11 = trunc i8 %10 to i1
  %12 = load i8, ptr @H5_libterm_g, align 1
  %13 = trunc i8 %12 to i1
  %14 = select i1 %11, i1 true, i1 %13
  br i1 %14, label %22, label %15

15:                                               ; preds = %5
  %16 = tail call i32 @H5_init_library() #4
  %17 = icmp slt i32 %16, 0
  br i1 %17, label %18, label %22

18:                                               ; preds = %15
  %19 = load i64, ptr @H5E_FUNC_g, align 8
  %20 = load i64, ptr @H5E_CANTINIT_g, align 8
  %21 = tail call i32 (ptr, ptr, i32, i64, i64, ptr, ...) @H5E_printf_stack(ptr noundef nonnull @.str, ptr noundef nonnull @__func__.H5Oget_native_info_by_name, i32 noundef 1337, i64 noundef %19, i64 noundef %20, ptr noundef nonnull @.str.1) #4
  br label %.thread39

22:                                               ; preds = %15, %5
  %23 = tail call i32 @H5CX_push() #4
  %24 = icmp slt i32 %23, 0
  br i1 %24, label %25, label %29

25:                                               ; preds = %22
  %26 = load i64, ptr @H5E_FUNC_g, align 8
  %27 = load i64, ptr @H5E_CANTSET_g, align 8
  %28 = tail call i32 (ptr, ptr, i32, i64, i64, ptr, ...) @H5E_printf_stack(ptr noundef nonnull @.str, ptr noundef nonnull @__func__.H5Oget_native_info_by_name, i32 noundef 1337, i64 noundef %26, i64 noundef %27, ptr noundef nonnull @.str.2) #4
  br label %.thread39

29:                                               ; preds = %22
  %30 = tail call i32 @H5E_clear_stack() #4
  %.not = icmp eq ptr %1, null
  br i1 %.not, label %31, label %35

31:                                               ; preds = %29
  %32 = load i64, ptr @H5E_ARGS_g, align 8
  %33 = load i64, ptr @H5E_BADVALUE_g, align 8
  %34 = tail call i32 (ptr, ptr, i32, i64, i64, ptr, ...) @H5E_printf_stack(ptr noundef nonnull @.str, ptr noundef nonnull @__func__.H5Oget_native_info_by_name, i32 noundef 1341, i64 noundef %32, i64 noundef %33, ptr noundef nonnull @.str.49) #4
  br label %.thread45

35:                                               ; preds = %29
  %36 = load i8, ptr %1, align 1
  %.not28 = icmp eq i8 %36, 0
  br i1 %.not28, label %37, label %41

37:                                               ; preds = %35
  %38 = load i64, ptr @H5E_ARGS_g, align 8
  %39 = load i64, ptr @H5E_BADVALUE_g, align 8
  %40 = tail call i32 (ptr, ptr, i32, i64, i64, ptr, ...) @H5E_printf_stack(ptr noundef nonnull @.str, ptr noundef nonnull @__func__.H5Oget_native_info_by_name, i32 noundef 1343, i64 noundef %38, i64 noundef %39, ptr noundef nonnull @.str.50) #4
  br label %.thread45

41:                                               ; preds = %35
  %.not29 = icmp eq ptr %2, null
  br i1 %.not29, label %42, label %46

42:                                               ; preds = %41
  %43 = load i64, ptr @H5E_ARGS_g, align 8
  %44 = load i64, ptr @H5E_BADVALUE_g, align 8
  %45 = tail call i32 (ptr, ptr, i32, i64, i64, ptr, ...) @H5E_printf_stack(ptr noundef nonnull @.str, ptr noundef nonnull @__func__.H5Oget_native_info_by_name, i32 noundef 1345, i64 noundef %43, i64 noundef %44, ptr noundef nonnull @.str.52) #4
  br label %.thread45

46:                                               ; preds = %41
  %47 = and i32 %3, -25
  %.not30 = icmp eq i32 %47, 0
  br i1 %.not30, label %52, label %48

48:                                               ; preds = %46
  %49 = load i64, ptr @H5E_ARGS_g, align 8
  %50 = load i64, ptr @H5E_BADVALUE_g, align 8
  %51 = tail call i32 (ptr, ptr, i32, i64, i64, ptr, ...) @H5E_printf_stack(ptr noundef nonnull @.str, ptr noundef nonnull @__func__.H5Oget_native_info_by_name, i32 noundef 1347, i64 noundef %49, i64 noundef %50, ptr noundef nonnull @.str.53) #4
  br label %.thread45

52:                                               ; preds = %46
  %53 = call i32 @H5CX_set_apl(ptr noundef nonnull %6, ptr noundef nonnull @H5P_CLS_LACC, i64 noundef %0, i1 noundef zeroext false) #4
  %54 = icmp slt i32 %53, 0
  br i1 %54, label %55, label %59

55:                                               ; preds = %52
  %56 = load i64, ptr @H5E_OHDR_g, align 8
  %57 = load i64, ptr @H5E_CANTSET_g, align 8
  %58 = call i32 (ptr, ptr, i32, i64, i64, ptr, ...) @H5E_printf_stack(ptr noundef nonnull @.str, ptr noundef nonnull @__func__.H5Oget_native_info_by_name, i32 noundef 1351, i64 noundef %56, i64 noundef %57, ptr noundef nonnull @.str.44) #4
  br label %.thread45

59:                                               ; preds = %52
  %60 = getelementptr inbounds i8, ptr %9, i64 4
  store i32 1, ptr %60, align 4
  %61 = getelementptr inbounds i8, ptr %9, i64 8
  store ptr %1, ptr %61, align 8
  %62 = load i64, ptr %6, align 8
  %63 = getelementptr inbounds i8, ptr %9, i64 16
  store i64 %62, ptr %63, align 8
  %64 = call i32 @H5I_get_type(i64 noundef %0) #4
  store i32 %64, ptr %9, align 8
  %65 = call ptr @H5VL_vol_object(i64 noundef %0) #4
  %66 = icmp eq ptr %65, null
  br i1 %66, label %67, label %71

67:                                               ; preds = %59
  %68 = load i64, ptr @H5E_ARGS_g, align 8
  %69 = load i64, ptr @H5E_BADTYPE_g, align 8
  %70 = call i32 (ptr, ptr, i32, i64, i64, ptr, ...) @H5E_printf_stack(ptr noundef nonnull @.str, ptr noundef nonnull @__func__.H5Oget_native_info_by_name, i32 noundef 1361, i64 noundef %68, i64 noundef %69, ptr noundef nonnull @.str.21) #4
  br label %.thread45

71:                                               ; preds = %59
  store i32 %3, ptr %8, align 8
  %72 = getelementptr inbounds i8, ptr %8, i64 8
  store ptr %2, ptr %72, align 8
  store i32 5, ptr %7, align 8
  %73 = getelementptr inbounds i8, ptr %7, i64 8
  store ptr %8, ptr %73, align 8
  %74 = load i64, ptr @H5P_LST_DATASET_XFER_ID_g, align 8
  %75 = call i32 @H5VL_object_optional(ptr noundef nonnull %65, ptr noundef nonnull %9, ptr noundef nonnull %7, i64 noundef %74, ptr noundef null) #4
  %76 = icmp slt i32 %75, 0
  br i1 %76, label %77, label %82

77:                                               ; preds = %71
  %78 = load i64, ptr @H5E_OHDR_g, align 8
  %79 = load i64, ptr @H5E_CANTGET_g, align 8
  %80 = call i32 (ptr, ptr, i32, i64, i64, ptr, ...) @H5E_printf_stack(ptr noundef nonnull @.str, ptr noundef nonnull @__func__.H5Oget_native_info_by_name, i32 noundef 1372, i64 noundef %78, i64 noundef %79, ptr noundef nonnull @.str.64, ptr noundef nonnull %1) #4
  br label %.thread45

.thread45:                                        ; preds = %31, %37, %42, %77, %67, %55, %48
  %81 = call i32 @H5CX_pop(i1 noundef zeroext true) #4
  br label %.thread39

82:                                               ; preds = %71
  %83 = call i32 @H5CX_pop(i1 noundef zeroext true) #4
  br label %85

.thread39:                                        ; preds = %25, %18, %.thread45
  %84 = call i32 @H5E_dump_api_stack() #4
  br label %85

85:                                               ; preds = %82, %.thread39
  %.0243442 = phi i32 [ -1, %.thread39 ], [ 0, %82 ]
  ret i32 %.0243442
}